target datalayout = "e-m:e-p270:32:32-p271:32:32-p272:64:64-i64:64-i128:128-f80:128-n8:16:32:64-S128"
target triple = "x86_64-pc-linux-gnu"

%struct.AVFormatContext = type { ptr, ptr, ptr, ptr, ptr, i32, i32, ptr, i32, ptr, i32, ptr, ptr, i64, i64, i64, i32, i32, i32, i64, i64, ptr, i32, i32, ptr, i32, i32, i32, i32, ptr, i64, i32, i32, %struct.AVIOInterruptCB, i32, i32, i32, i32, i64, i32, i32, i32, i32, i32, i32, i32, i32, i32, i32, i32, i32, i64, i32, i32, i32, i32, i32, ptr, ptr, ptr, ptr, i32, ptr, ptr, ptr, ptr, i32, ptr, ptr, i64, ptr, ptr, ptr, i64 }
%struct.AVIOInterruptCB = type { ptr, ptr }
%struct.AVPacket = type { ptr, i64, i64, ptr, i32, i32, i32, ptr, i32, i64, i64, ptr, ptr, %struct.AVRational }
%struct.AVRational = type { i32, i32 }
%struct.AVStream = type { ptr, i32, i32, ptr, ptr, %struct.AVRational, i64, i64, i64, i32, i32, %struct.AVRational, ptr, %struct.AVRational, %struct.AVPacket, i32, %struct.AVRational, i32 }
%struct.AVCodecParameters = type { i32, i32, i32, ptr, i32, ptr, i32, i32, i64, i32, i32, i32, i32, i32, i32, %struct.AVRational, %struct.AVRational, i32, i32, i32, i32, i32, i32, i32, %struct.AVChannelLayout, i32, i32, i32, i32, i32, i32 }
%struct.AVChannelLayout = type { i32, i32, %union.anon.0, ptr }
%union.anon.0 = type { i64 }

@mxf_wav_descriptor_key = internal constant [16 x i8] c"\06\0E+4\02S\01\01\0D\01\01\01\01\01H\00", align 16

; Function Attrs: nounwind uwtable
define internal void @klv_encode_ber4_length(ptr noundef %0, i32 noundef %1) #0 {
  %3 = alloca ptr, align 8
  %4 = alloca i32, align 4
  store ptr %0, ptr %3, align 8, !tbaa !31
  store i32 %1, ptr %4, align 4, !tbaa !57
  %5 = load ptr, ptr %3, align 8, !tbaa !31
  call void @avio_w8(ptr noundef %5, i32 noundef 131)
  %6 = load ptr, ptr %3, align 8, !tbaa !31
  %7 = load i32, ptr %4, align 4, !tbaa !57
  call void @avio_wb24(ptr noundef %6, i32 noundef %7)
  ret void
}

; Function Attrs: alwaysinline nounwind uwtable
define internal i64 @avio_tell(ptr noundef %0) #8 {
  %2 = alloca ptr, align 8
  store ptr %0, ptr %2, align 8, !tbaa !31
  %3 = load ptr, ptr %2, align 8, !tbaa !31
  %4 = call i64 @avio_seek(ptr noundef %3, i64 noundef 0, i32 noundef 1)
  ret i64 %4
}

; Function Attrs: nounwind uwtable
define internal void @mxf_update_klv_size(ptr noundef %0, i64 noundef %1) #0 {
  %3 = alloca ptr, align 8
  %4 = alloca i64, align 8
  %5 = alloca i64, align 8
  %6 = alloca i32, align 4
  store ptr %0, ptr %3, align 8, !tbaa !31
  store i64 %1, ptr %4, align 8, !tbaa !80
  call void @llvm.lifetime.start.p0(i64 8, ptr %5) #13
  %7 = load ptr, ptr %3, align 8, !tbaa !31
  %8 = call i64 @avio_tell(ptr noundef %7)
  store i64 %8, ptr %5, align 8, !tbaa !80
  call void @llvm.lifetime.start.p0(i64 4, ptr %6) #13
  %9 = load i64, ptr %5, align 8, !tbaa !80
  %10 = load i64, ptr %4, align 8, !tbaa !80
  %11 = sub nsw i64 %9, %10
  %12 = trunc i64 %11 to i32
  store i32 %12, ptr %6, align 4, !tbaa !57
  %13 = load ptr, ptr %3, align 8, !tbaa !31
  %14 = load i64, ptr %4, align 8, !tbaa !80
  %15 = sub nsw i64 %14, 4
  %16 = call i64 @avio_seek(ptr noundef %13, i64 noundef %15, i32 noundef 0)
  %17 = load ptr, ptr %3, align 8, !tbaa !31
  %18 = load i32, ptr %6, align 4, !tbaa !57
  call void @klv_encode_ber4_length(ptr noundef %17, i32 noundef %18)
  %19 = load ptr, ptr %3, align 8, !tbaa !31
  %20 = load i64, ptr %5, align 8, !tbaa !80
  %21 = call i64 @avio_seek(ptr noundef %19, i64 noundef %20, i32 noundef 0)
  call void @llvm.lifetime.end.p0(i64 4, ptr %6) #13
  call void @llvm.lifetime.end.p0(i64 8, ptr %5) #13
  ret void
}

; Function Attrs: nounwind uwtable
define internal i64 @mxf_write_wav_common(ptr noundef %0, ptr noundef %1, ptr noundef %2) #0 {
  %4 = alloca ptr, align 8
  %5 = alloca ptr, align 8
  %6 = alloca ptr, align 8
  %7 = alloca ptr, align 8
  %8 = alloca i64, align 8
  store ptr %0, ptr %4, align 8, !tbaa !4
  store ptr %1, ptr %5, align 8, !tbaa !38
  store ptr %2, ptr %6, align 8, !tbaa !151
  call void @llvm.lifetime.start.p0(i64 8, ptr %7) #13
  %9 = load ptr, ptr %4, align 8, !tbaa !4
  %10 = getelementptr inbounds nuw %struct.AVFormatContext, ptr %9, i32 0, i32 4
  %11 = load ptr, ptr %10, align 8, !tbaa !30
  store ptr %11, ptr %7, align 8, !tbaa !31
  call void @llvm.lifetime.start.p0(i64 8, ptr %8) #13
  %12 = load ptr, ptr %4, align 8, !tbaa !4
  %13 = load ptr, ptr %5, align 8, !tbaa !38
  %14 = load ptr, ptr %6, align 8, !tbaa !151
  %15 = call i64 @mxf_write_generic_sound_common(ptr noundef %12, ptr noundef %13, ptr noundef %14)
  store i64 %15, ptr %8, align 8, !tbaa !80
  %16 = load ptr, ptr %4, align 8, !tbaa !4
  call void @mxf_write_local_tag(ptr noundef %16, i32 noundef 2, i32 noundef 15626)
  %17 = load ptr, ptr %7, align 8, !tbaa !31
  %18 = load ptr, ptr %5, align 8, !tbaa !38
  %19 = getelementptr inbounds nuw %struct.AVStream, ptr %18, i32 0, i32 3
  %20 = load ptr, ptr %19, align 8, !tbaa !58
  %21 = getelementptr inbounds nuw %struct.AVCodecParameters, ptr %20, i32 0, i32 26
  %22 = load i32, ptr %21, align 4, !tbaa !201
  call void @avio_wb16(ptr noundef %17, i32 noundef %22)
  %23 = load ptr, ptr %4, align 8, !tbaa !4
  call void @mxf_write_local_tag(ptr noundef %23, i32 noundef 4, i32 noundef 15625)
  %24 = load ptr, ptr %7, align 8, !tbaa !31
  %25 = load ptr, ptr %5, align 8, !tbaa !38
  %26 = getelementptr inbounds nuw %struct.AVStream, ptr %25, i32 0, i32 3
  %27 = load ptr, ptr %26, align 8, !tbaa !58
  %28 = getelementptr inbounds nuw %struct.AVCodecParameters, ptr %27, i32 0, i32 26
  %29 = load i32, ptr %28, align 4, !tbaa !201
  %30 = load ptr, ptr %5, align 8, !tbaa !38
  %31 = getelementptr inbounds nuw %struct.AVStream, ptr %30, i32 0, i32 3
  %32 = load ptr, ptr %31, align 8, !tbaa !58
  %33 = getelementptr inbounds nuw %struct.AVCodecParameters, ptr %32, i32 0, i32 25
  %34 = load i32, ptr %33, align 8, !tbaa !122
  %35 = mul nsw i32 %29, %34
  call void @avio_wb32(ptr noundef %24, i32 noundef %35)
  %36 = load i64, ptr %8, align 8, !tbaa !80
  call void @llvm.lifetime.end.p0(i64 8, ptr %8) #13
  call void @llvm.lifetime.end.p0(i64 8, ptr %7) #13
  ret i64 %36
}

; Function Attrs: nounwind uwtable
define internal i32 @mxf_write_wav_desc(ptr noundef %0, ptr noundef %1) #0 {
  %3 = alloca ptr, align 8
  %4 = alloca ptr, align 8
  %5 = alloca i64, align 8
  store ptr %0, ptr %3, align 8, !tbaa !4
  store ptr %1, ptr %4, align 8, !tbaa !38
  call void @llvm.lifetime.start.p0(i64 8, ptr %5) #13
  %6 = load ptr, ptr %3, align 8, !tbaa !4
  %7 = load ptr, ptr %4, align 8, !tbaa !38
  %8 = call i64 @mxf_write_wav_common(ptr noundef %6, ptr noundef %7, ptr noundef @mxf_wav_descriptor_key)
  store i64 %8, ptr %5, align 8, !tbaa !80
  %9 = load ptr, ptr %3, align 8, !tbaa !4
  %10 = getelementptr inbounds nuw %struct.AVFormatContext, ptr %9, i32 0, i32 4
  %11 = load ptr, ptr %10, align 8, !tbaa !30
  %12 = load i64, ptr %5, align 8, !tbaa !80
  call void @mxf_update_klv_size(ptr noundef %11, i64 noundef %12)
  call void @llvm.lifetime.end.p0(i64 8, ptr %5) #13
  ret i32 0
}